target datalayout = "e-m:e-p270:32:32-p271:32:32-p272:64:64-i64:64-i128:128-f80:128-n8:16:32:64-S128"
target triple = "x86_64-unknown-linux-gnu"

%"class.rocksdb::BlockBasedTable::PartitionedIndexIteratorState" = type { %"struct.rocksdb::TwoLevelIteratorState", ptr, ptr }
%"struct.rocksdb::TwoLevelIteratorState" = type { ptr }

@_ZTVN7rocksdb21TwoLevelIteratorStateE = linkonce_odr unnamed_addr constant { [5 x ptr] } { [5 x ptr] [ptr null, ptr null, ptr @_ZN7rocksdb21TwoLevelIteratorStateD2Ev, ptr @_ZN7rocksdb21TwoLevelIteratorStateD0Ev, ptr @__cxa_pure_virtual] }, comdat, align 8

; Function Attrs: mustprogress nounwind uwtable
define linkonce_odr void @_ZN7rocksdb21TwoLevelIteratorStateC2Ev(ptr noundef nonnull align 8 dereferenceable(8) %this) unnamed_addr #1 comdat align 2 {
entry:
  %this.addr = alloca ptr, align 8
  store ptr %this, ptr %this.addr, align 8
  %this1 = load ptr, ptr %this.addr, align 8
  store ptr getelementptr inbounds ({ [5 x ptr] }, ptr @_ZTVN7rocksdb21TwoLevelIteratorStateE, i32 0, i32 0, i32 2), ptr %this1, align 8
  ret void
}

; Function Attrs: mustprogress uwtable
define void @_ZN7rocksdb15BlockBasedTable29PartitionedIndexIteratorStateC2EPKS0_PSt13unordered_mapImNS_13CachableEntryINS_5BlockEEESt4hashImESt8equal_toImESaISt4pairIKmS7_EEE(ptr noundef nonnull align 8 dereferenceable(24) %this, ptr noundef %table, ptr noundef %block_map) unnamed_addr #0 align 2 {
entry:
  %this.addr = alloca ptr, align 8
  %table.addr = alloca ptr, align 8
  %block_map.addr = alloca ptr, align 8
  store ptr %this, ptr %this.addr, align 8
  store ptr %table, ptr %table.addr, align 8
  store ptr %block_map, ptr %block_map.addr, align 8
  %this1 = load ptr, ptr %this.addr, align 8
  call void @_ZN7rocksdb21TwoLevelIteratorStateC2Ev(ptr noundef nonnull align 8 dereferenceable(8) %this1)
  store ptr getelementptr inbounds ({ [5 x ptr] }, ptr @_ZTVN7rocksdb15BlockBasedTable29PartitionedIndexIteratorStateE, i32 0, i32 0, i32 2), ptr %this1, align 8
  %table_ = getelementptr inbounds %"class.rocksdb::BlockBasedTable::PartitionedIndexIteratorState", ptr %this1, i32 0, i32 1
  %0 = load ptr, ptr %table.addr, align 8
  store ptr %0, ptr %table_, align 8
  %block_map_ = getelementptr inbounds %"class.rocksdb::BlockBasedTable::PartitionedIndexIteratorState", ptr %this1, i32 0, i32 2
  %1 = load ptr, ptr %block_map.addr, align 8
  store ptr %1, ptr %block_map_, align 8
  ret void
}