; Function Attrs: mustprogress nofree norecurse nosync nounwind willreturn memory(argmem: write) uwtable
define void @_ZN7rocksdb15BlockBasedTable29PartitionedIndexIteratorStateC2EPKS0_PSt13unordered_mapImNS_13CachableEntryINS_5BlockEEESt4hashImESt8equal_toImESaISt4pairIKmS7_EEE(ptr nocapture noundef nonnull writeonly align 8 dereferenceable(24) %this, ptr noundef %table, ptr noundef %block_map) unnamed_addr #14 align 2 {
entry:
  store ptr getelementptr inbounds ({ [5 x ptr] }, ptr @_ZTVN7rocksdb15BlockBasedTable29PartitionedIndexIteratorStateE, i64 0, i32 0, i64 2), ptr %this, align 8
  %table_ = getelementptr inbounds i8, ptr %this, i64 8
  store ptr %table, ptr %table_, align 8
  %block_map_ = getelementptr inbounds i8, ptr %this, i64 16
  store ptr %block_map, ptr %block_map_, align 8
  ret void
}